target datalayout = "e-m:e-p270:32:32-p271:32:32-p272:64:64-i64:64-i128:128-f80:128-n8:16:32:64-S128"
target triple = "x86_64-pc-linux-gnu"

%class.VM_Operation = type { ptr, ptr }
%union.jvalue = type { i64 }
%class.VM_BaseGetOrSetLocal = type { %class.VM_Operation, ptr, i32, i32, i8, %union.jvalue, ptr, i8, i8, i32 }
%class.VM_GetOrSetLocal = type { %class.VM_BaseGetOrSetLocal, ptr, %class.EscapeBarrier }
%class.EscapeBarrier = type <{ ptr, ptr, i8, [7 x i8] }>

; Function Attrs: mustprogress nounwind uwtable
define hidden noundef zeroext i1 @_ZN16VM_GetOrSetLocal13doit_prologueEv(ptr noundef nonnull align 8 dereferenceable(96) %0) unnamed_addr #1 align 2 {
  %2 = alloca i1, align 1
  %3 = alloca ptr, align 8
  store ptr %0, ptr %3, align 8
  %4 = load ptr, ptr %3, align 8
  %5 = getelementptr inbounds %class.VM_GetOrSetLocal, ptr %4, i32 0, i32 2
  %6 = getelementptr inbounds %class.VM_BaseGetOrSetLocal, ptr %4, i32 0, i32 2
  %7 = load i32, ptr %6, align 8
  %8 = getelementptr inbounds %class.VM_BaseGetOrSetLocal, ptr %4, i32 0, i32 2
  %9 = load i32, ptr %8, align 8
  %10 = call noundef zeroext i1 @_ZN13EscapeBarrier18deoptimize_objectsEii(ptr noundef nonnull align 8 dereferenceable(17) %5, i32 noundef %7, i32 noundef %9)
  br i1 %10, label %13, label %11

11:                                               ; preds = %1
  %12 = getelementptr inbounds %class.VM_BaseGetOrSetLocal, ptr %4, i32 0, i32 9
  store i32 110, ptr %12, align 4
  store i1 false, ptr %2, align 1
  br label %14

13:                                               ; preds = %1
  store i1 true, ptr %2, align 1
  br label %14

14:                                               ; preds = %13, %11
  %15 = load i1, ptr %2, align 1
  ret i1 %15
}