; Function Attrs: mustprogress nounwind uwtable
define hidden noundef zeroext i1 @_ZN16VM_GetOrSetLocal13doit_prologueEv(ptr noundef nonnull align 8 dereferenceable(96) %0) unnamed_addr #0 align 2 {
  %2 = getelementptr inbounds i8, ptr %0, i64 72
  %3 = getelementptr inbounds i8, ptr %0, i64 24
  %4 = load i32, ptr %3, align 8
  %5 = tail call noundef zeroext i1 @_ZN13EscapeBarrier18deoptimize_objectsEii(ptr noundef nonnull align 8 dereferenceable(17) %2, i32 noundef %4, i32 noundef %4) #17
  br i1 %5, label %8, label %6

6:                                                ; preds = %1
  %7 = getelementptr inbounds i8, ptr %0, i64 60
  store i32 110, ptr %7, align 4
  br label %8

8:                                                ; preds = %1, %6
  ret i1 %5
}